target datalayout = "e-m:e-p270:32:32-p271:32:32-p272:64:64-i64:64-i128:128-f80:128-n8:16:32:64-S128"
target triple = "x86_64-pc-linux-gnu"

%struct.hwloc_shmem_header = type { i32, i32, i64, i64 }
%struct.hwloc_topology = type { i32, i32, i32, ptr, ptr, i64, [20 x i32], [20 x i32], i64, i64, i32, ptr, i64, ptr, i64, [6 x %struct.hwloc_special_level_s], ptr, ptr, %struct.hwloc_binding_hooks, %struct.hwloc_topology_support, %struct.hwloc_infos_s, ptr, ptr, i32, ptr, ptr, i32, i32, ptr, i32, i32, ptr, i32, i32, i32, [5 x float], i32, ptr, ptr, i32, i32, ptr, i32, %struct.hwloc_numanode_attr_s, i32, i32, ptr, i64, i32, ptr, ptr, ptr }
%struct.hwloc_special_level_s = type { i32, ptr, ptr, ptr }
%struct.hwloc_binding_hooks = type { ptr, ptr, ptr, ptr, ptr, ptr, ptr, ptr, ptr, ptr, ptr, ptr, ptr, ptr, ptr, ptr, ptr, ptr, ptr, ptr, ptr, ptr, ptr, ptr }
%struct.hwloc_topology_support = type { ptr, ptr, ptr, ptr }
%struct.hwloc_infos_s = type { ptr, i32, i32 }
%struct.hwloc_numanode_attr_s = type { i64, i32, ptr }

@.str = private unnamed_addr constant [18 x i8] c"HWLOC_DEBUG_CHECK\00", align 1

; Function Attrs: nounwind uwtable
define i32 @hwloc_shmem_topology_adopt(ptr noundef %0, i32 noundef %1, i64 noundef %2, ptr noundef %3, i64 noundef %4, i64 noundef %5) #0 {
  %7 = alloca i32, align 4
  %8 = alloca ptr, align 8
  %9 = alloca i32, align 4
  %10 = alloca i64, align 8
  %11 = alloca ptr, align 8
  %12 = alloca i64, align 8
  %13 = alloca i64, align 8
  %14 = alloca ptr, align 8
  %15 = alloca ptr, align 8
  %16 = alloca %struct.hwloc_shmem_header, align 8
  %17 = alloca i32, align 4
  %18 = alloca ptr, align 8
  %19 = alloca i32, align 4
  %20 = alloca i32, align 4
  store ptr %0, ptr %8, align 8, !tbaa !26
  store i32 %1, ptr %9, align 4, !tbaa !12
  store i64 %2, ptr %10, align 8, !tbaa !10
  store ptr %3, ptr %11, align 8, !tbaa !20
  store i64 %4, ptr %12, align 8, !tbaa !10
  store i64 %5, ptr %13, align 8, !tbaa !10
  call void @llvm.lifetime.start.p0(i64 8, ptr %14) #7
  call void @llvm.lifetime.start.p0(i64 8, ptr %15) #7
  call void @llvm.lifetime.start.p0(i64 24, ptr %16) #7
  call void @llvm.lifetime.start.p0(i64 4, ptr %17) #7
  store i32 24, ptr %17, align 4, !tbaa !12
  call void @llvm.lifetime.start.p0(i64 8, ptr %18) #7
  call void @llvm.lifetime.start.p0(i64 4, ptr %19) #7
  %21 = load i64, ptr %13, align 8, !tbaa !10
  %22 = icmp ne i64 %21, 0
  br i1 %22, label %23, label %25

23:                                               ; preds = %6
  %24 = call ptr @__errno_location() #8
  store i32 22, ptr %24, align 4, !tbaa !12
  store i32 -1, ptr %7, align 4
  store i32 1, ptr %20, align 4
  br label %228

25:                                               ; preds = %6
  %26 = load i32, ptr %9, align 4, !tbaa !12
  %27 = load i64, ptr %10, align 8, !tbaa !10
  %28 = call i64 @lseek(i32 noundef %26, i64 noundef %27, i32 noundef 0) #7
  %29 = trunc i64 %28 to i32
  store i32 %29, ptr %19, align 4, !tbaa !12
  %30 = load i32, ptr %19, align 4, !tbaa !12
  %31 = icmp slt i32 %30, 0
  br i1 %31, label %32, label %33

32:                                               ; preds = %25
  store i32 -1, ptr %7, align 4
  store i32 1, ptr %20, align 4
  br label %228

33:                                               ; preds = %25
  %34 = load i32, ptr %9, align 4, !tbaa !12
  %35 = call i64 @read(i32 noundef %34, ptr noundef %16, i64 noundef 24)
  %36 = trunc i64 %35 to i32
  store i32 %36, ptr %19, align 4, !tbaa !12
  %37 = load i32, ptr %19, align 4, !tbaa !12
  %38 = sext i32 %37 to i64
  %39 = icmp ne i64 %38, 24
  br i1 %39, label %40, label %41

40:                                               ; preds = %33
  store i32 -1, ptr %7, align 4
  store i32 1, ptr %20, align 4
  br label %228

41:                                               ; preds = %33
  %42 = getelementptr inbounds nuw %struct.hwloc_shmem_header, ptr %16, i32 0, i32 0
  %43 = load i32, ptr %42, align 8, !tbaa !21
  %44 = icmp ne i32 %43, 1
  br i1 %44, label %61, label %45

45:                                               ; preds = %41
  %46 = getelementptr inbounds nuw %struct.hwloc_shmem_header, ptr %16, i32 0, i32 1
  %47 = load i32, ptr %46, align 4, !tbaa !23
  %48 = load i32, ptr %17, align 4, !tbaa !12
  %49 = icmp ne i32 %47, %48
  br i1 %49, label %61, label %50

50:                                               ; preds = %45
  %51 = getelementptr inbounds nuw %struct.hwloc_shmem_header, ptr %16, i32 0, i32 2
  %52 = load i64, ptr %51, align 8, !tbaa !24
  %53 = load ptr, ptr %11, align 8, !tbaa !20
  %54 = ptrtoint ptr %53 to i64
  %55 = icmp ne i64 %52, %54
  br i1 %55, label %61, label %56

56:                                               ; preds = %50
  %57 = getelementptr inbounds nuw %struct.hwloc_shmem_header, ptr %16, i32 0, i32 3
  %58 = load i64, ptr %57, align 8, !tbaa !25
  %59 = load i64, ptr %12, align 8, !tbaa !10
  %60 = icmp ne i64 %58, %59
  br i1 %60, label %61, label %63

61:                                               ; preds = %56, %50, %45, %41
  %62 = call ptr @__errno_location() #8
  store i32 22, ptr %62, align 4, !tbaa !12
  store i32 -1, ptr %7, align 4
  store i32 1, ptr %20, align 4
  br label %228

63:                                               ; preds = %56
  %64 = load ptr, ptr %11, align 8, !tbaa !20
  %65 = load i64, ptr %12, align 8, !tbaa !10
  %66 = load i32, ptr %9, align 4, !tbaa !12
  %67 = load i64, ptr %10, align 8, !tbaa !10
  %68 = call ptr @mmap(ptr noundef %64, i64 noundef %65, i32 noundef 1, i32 noundef 1, i32 noundef %66, i64 noundef %67) #7
  store ptr %68, ptr %18, align 8, !tbaa !20
  %69 = load ptr, ptr %18, align 8, !tbaa !20
  %70 = icmp eq ptr %69, inttoptr (i64 -1 to ptr)
  br i1 %70, label %71, label %72

71:                                               ; preds = %63
  store i32 -1, ptr %7, align 4
  store i32 1, ptr %20, align 4
  br label %228

72:                                               ; preds = %63
  %73 = load ptr, ptr %18, align 8, !tbaa !20
  %74 = load ptr, ptr %11, align 8, !tbaa !20
  %75 = icmp ne ptr %73, %74
  br i1 %75, label %76, label %78

76:                                               ; preds = %72
  %77 = call ptr @__errno_location() #8
  store i32 16, ptr %77, align 4, !tbaa !12
  br label %224

78:                                               ; preds = %72
  %79 = load ptr, ptr %11, align 8, !tbaa !20
  %80 = load i32, ptr %17, align 4, !tbaa !12
  %81 = zext i32 %80 to i64
  %82 = getelementptr inbounds nuw i8, ptr %79, i64 %81
  store ptr %82, ptr %15, align 8, !tbaa !3
  %83 = load ptr, ptr %15, align 8, !tbaa !3
  %84 = call i32 @hwloc_topology_abi_check(ptr noundef %83)
  %85 = icmp slt i32 %84, 0
  br i1 %85, label %86, label %88

86:                                               ; preds = %78
  %87 = call ptr @__errno_location() #8
  store i32 22, ptr %87, align 4, !tbaa !12
  br label %224

88:                                               ; preds = %78
  call void @hwloc_components_init()
  %89 = call noalias ptr @malloc(i64 noundef 936) #9
  store ptr %89, ptr %14, align 8, !tbaa !3
  %90 = load ptr, ptr %14, align 8, !tbaa !3
  %91 = icmp ne ptr %90, null
  br i1 %91, label %93, label %92

92:                                               ; preds = %88
  br label %223

93:                                               ; preds = %88
  %94 = load ptr, ptr %14, align 8, !tbaa !3
  %95 = load ptr, ptr %15, align 8, !tbaa !3
  call void @llvm.memcpy.p0.p0.i64(ptr align 8 %94, ptr align 8 %95, i64 936, i1 false)
  %96 = load ptr, ptr %14, align 8, !tbaa !3
  %97 = getelementptr inbounds nuw %struct.hwloc_topology, ptr %96, i32 0, i32 41
  store ptr null, ptr %97, align 8, !tbaa !28
  %98 = load ptr, ptr %11, align 8, !tbaa !20
  %99 = load ptr, ptr %14, align 8, !tbaa !3
  %100 = getelementptr inbounds nuw %struct.hwloc_topology, ptr %99, i32 0, i32 13
  store ptr %98, ptr %100, align 8, !tbaa !50
  %101 = load i64, ptr %12, align 8, !tbaa !10
  %102 = load ptr, ptr %14, align 8, !tbaa !3
  %103 = getelementptr inbounds nuw %struct.hwloc_topology, ptr %102, i32 0, i32 14
  store i64 %101, ptr %103, align 8, !tbaa !51
  %104 = load ptr, ptr %14, align 8, !tbaa !3
  %105 = getelementptr inbounds nuw %struct.hwloc_topology, ptr %104, i32 0, i32 0
  store i32 196608, ptr %105, align 8, !tbaa !52
  %106 = call noalias ptr @malloc(i64 noundef 6) #9
  %107 = load ptr, ptr %14, align 8, !tbaa !3
  %108 = getelementptr inbounds nuw %struct.hwloc_topology, ptr %107, i32 0, i32 19
  %109 = getelementptr inbounds nuw %struct.hwloc_topology_support, ptr %108, i32 0, i32 0
  store ptr %106, ptr %109, align 8, !tbaa !53
  %110 = call noalias ptr @malloc(i64 noundef 11) #9
  %111 = load ptr, ptr %14, align 8, !tbaa !3
  %112 = getelementptr inbounds nuw %struct.hwloc_topology, ptr %111, i32 0, i32 19
  %113 = getelementptr inbounds nuw %struct.hwloc_topology_support, ptr %112, i32 0, i32 1
  store ptr %110, ptr %113, align 8, !tbaa !54
  %114 = call noalias ptr @malloc(i64 noundef 16) #9
  %115 = load ptr, ptr %14, align 8, !tbaa !3
  %116 = getelementptr inbounds nuw %struct.hwloc_topology, ptr %115, i32 0, i32 19
  %117 = getelementptr inbounds nuw %struct.hwloc_topology_support, ptr %116, i32 0, i32 2
  store ptr %114, ptr %117, align 8, !tbaa !55
  %118 = call noalias ptr @malloc(i64 noundef 1) #9
  %119 = load ptr, ptr %14, align 8, !tbaa !3
  %120 = getelementptr inbounds nuw %struct.hwloc_topology, ptr %119, i32 0, i32 19
  %121 = getelementptr inbounds nuw %struct.hwloc_topology_support, ptr %120, i32 0, i32 3
  store ptr %118, ptr %121, align 8, !tbaa !56
  %122 = load ptr, ptr %14, align 8, !tbaa !3
  %123 = getelementptr inbounds nuw %struct.hwloc_topology, ptr %122, i32 0, i32 19
  %124 = getelementptr inbounds nuw %struct.hwloc_topology_support, ptr %123, i32 0, i32 0
  %125 = load ptr, ptr %124, align 8, !tbaa !53
  %126 = icmp ne ptr %125, null
  br i1 %126, label %127, label %145

127:                                              ; preds = %93
  %128 = load ptr, ptr %14, align 8, !tbaa !3
  %129 = getelementptr inbounds nuw %struct.hwloc_topology, ptr %128, i32 0, i32 19
  %130 = getelementptr inbounds nuw %struct.hwloc_topology_support, ptr %129, i32 0, i32 1
  %131 = load ptr, ptr %130, align 8, !tbaa !54
  %132 = icmp ne ptr %131, null
  br i1 %132, label %133, label %145

133:                                              ; preds = %127
  %134 = load ptr, ptr %14, align 8, !tbaa !3
  %135 = getelementptr inbounds nuw %struct.hwloc_topology, ptr %134, i32 0, i32 19
  %136 = getelementptr inbounds nuw %struct.hwloc_topology_support, ptr %135, i32 0, i32 2
  %137 = load ptr, ptr %136, align 8, !tbaa !55
  %138 = icmp ne ptr %137, null
  br i1 %138, label %139, label %145

139:                                              ; preds = %133
  %140 = load ptr, ptr %14, align 8, !tbaa !3
  %141 = getelementptr inbounds nuw %struct.hwloc_topology, ptr %140, i32 0, i32 19
  %142 = getelementptr inbounds nuw %struct.hwloc_topology_support, ptr %141, i32 0, i32 3
  %143 = load ptr, ptr %142, align 8, !tbaa !56
  %144 = icmp ne ptr %143, null
  br i1 %144, label %146, label %145

145:                                              ; preds = %139, %133, %127, %93
  br label %205

146:                                              ; preds = %139
  %147 = load ptr, ptr %14, align 8, !tbaa !3
  %148 = getelementptr inbounds nuw %struct.hwloc_topology, ptr %147, i32 0, i32 19
  %149 = getelementptr inbounds nuw %struct.hwloc_topology_support, ptr %148, i32 0, i32 0
  %150 = load ptr, ptr %149, align 8, !tbaa !53
  %151 = load ptr, ptr %15, align 8, !tbaa !3
  %152 = getelementptr inbounds nuw %struct.hwloc_topology, ptr %151, i32 0, i32 19
  %153 = getelementptr inbounds nuw %struct.hwloc_topology_support, ptr %152, i32 0, i32 0
  %154 = load ptr, ptr %153, align 8, !tbaa !53
  call void @llvm.memcpy.p0.p0.i64(ptr align 1 %150, ptr align 1 %154, i64 6, i1 false)
  %155 = load ptr, ptr %14, align 8, !tbaa !3
  %156 = getelementptr inbounds nuw %struct.hwloc_topology, ptr %155, i32 0, i32 19
  %157 = getelementptr inbounds nuw %struct.hwloc_topology_support, ptr %156, i32 0, i32 1
  %158 = load ptr, ptr %157, align 8, !tbaa !54
  %159 = load ptr, ptr %15, align 8, !tbaa !3
  %160 = getelementptr inbounds nuw %struct.hwloc_topology, ptr %159, i32 0, i32 19
  %161 = getelementptr inbounds nuw %struct.hwloc_topology_support, ptr %160, i32 0, i32 1
  %162 = load ptr, ptr %161, align 8, !tbaa !54
  call void @llvm.memcpy.p0.p0.i64(ptr align 1 %158, ptr align 1 %162, i64 11, i1 false)
  %163 = load ptr, ptr %14, align 8, !tbaa !3
  %164 = getelementptr inbounds nuw %struct.hwloc_topology, ptr %163, i32 0, i32 19
  %165 = getelementptr inbounds nuw %struct.hwloc_topology_support, ptr %164, i32 0, i32 2
  %166 = load ptr, ptr %165, align 8, !tbaa !55
  %167 = load ptr, ptr %15, align 8, !tbaa !3
  %168 = getelementptr inbounds nuw %struct.hwloc_topology, ptr %167, i32 0, i32 19
  %169 = getelementptr inbounds nuw %struct.hwloc_topology_support, ptr %168, i32 0, i32 2
  %170 = load ptr, ptr %169, align 8, !tbaa !55
  call void @llvm.memcpy.p0.p0.i64(ptr align 1 %166, ptr align 1 %170, i64 16, i1 false)
  %171 = load ptr, ptr %14, align 8, !tbaa !3
  %172 = getelementptr inbounds nuw %struct.hwloc_topology, ptr %171, i32 0, i32 19
  %173 = getelementptr inbounds nuw %struct.hwloc_topology_support, ptr %172, i32 0, i32 3
  %174 = load ptr, ptr %173, align 8, !tbaa !56
  %175 = load ptr, ptr %15, align 8, !tbaa !3
  %176 = getelementptr inbounds nuw %struct.hwloc_topology, ptr %175, i32 0, i32 19
  %177 = getelementptr inbounds nuw %struct.hwloc_topology_support, ptr %176, i32 0, i32 3
  %178 = load ptr, ptr %177, align 8, !tbaa !56
  call void @llvm.memcpy.p0.p0.i64(ptr align 1 %174, ptr align 1 %178, i64 1, i1 false)
  %179 = load ptr, ptr %14, align 8, !tbaa !3
  call void @hwloc_set_binding_hooks(ptr noundef %179)
  %180 = load ptr, ptr %14, align 8, !tbaa !3
  %181 = getelementptr inbounds nuw %struct.hwloc_topology, ptr %180, i32 0, i32 21
  store ptr null, ptr %181, align 8, !tbaa !57
  %182 = load ptr, ptr %14, align 8, !tbaa !3
  %183 = getelementptr inbounds nuw %struct.hwloc_topology, ptr %182, i32 0, i32 22
  store ptr null, ptr %183, align 8, !tbaa !58
  %184 = load ptr, ptr %14, align 8, !tbaa !3
  %185 = getelementptr inbounds nuw %struct.hwloc_topology, ptr %184, i32 0, i32 20
  %186 = getelementptr inbounds nuw %struct.hwloc_infos_s, ptr %185, i32 0, i32 0
  store ptr null, ptr %186, align 8, !tbaa !59
  %187 = load ptr, ptr %14, align 8, !tbaa !3
  %188 = getelementptr inbounds nuw %struct.hwloc_topology, ptr %187, i32 0, i32 20
  %189 = getelementptr inbounds nuw %struct.hwloc_infos_s, ptr %188, i32 0, i32 1
  store i32 0, ptr %189, align 8, !tbaa !60
  %190 = load ptr, ptr %14, align 8, !tbaa !3
  %191 = getelementptr inbounds nuw %struct.hwloc_topology, ptr %190, i32 0, i32 20
  %192 = getelementptr inbounds nuw %struct.hwloc_infos_s, ptr %191, i32 0, i32 2
  store i32 0, ptr %192, align 4, !tbaa !61
  %193 = load ptr, ptr %14, align 8, !tbaa !3
  %194 = getelementptr inbounds nuw %struct.hwloc_topology, ptr %193, i32 0, i32 20
  %195 = load ptr, ptr %15, align 8, !tbaa !3
  %196 = getelementptr inbounds nuw %struct.hwloc_topology, ptr %195, i32 0, i32 20
  %197 = call i32 @hwloc__tma_dup_infos(ptr noundef null, ptr noundef %194, ptr noundef %196)
  %198 = call ptr @getenv(ptr noundef @.str) #7
  %199 = icmp ne ptr %198, null
  br i1 %199, label %200, label %202

200:                                              ; preds = %146
  %201 = load ptr, ptr %14, align 8, !tbaa !3
  call void @hwloc_topology_check(ptr noundef %201)
  br label %202

202:                                              ; preds = %200, %146
  %203 = load ptr, ptr %14, align 8, !tbaa !3
  %204 = load ptr, ptr %8, align 8, !tbaa !26
  store ptr %203, ptr %204, align 8, !tbaa !3
  store i32 0, ptr %7, align 4
  store i32 1, ptr %20, align 4
  br label %228

205:                                              ; preds = %145
  %206 = load ptr, ptr %14, align 8, !tbaa !3
  %207 = getelementptr inbounds nuw %struct.hwloc_topology, ptr %206, i32 0, i32 19
  %208 = getelementptr inbounds nuw %struct.hwloc_topology_support, ptr %207, i32 0, i32 0
  %209 = load ptr, ptr %208, align 8, !tbaa !53
  call void @free(ptr noundef %209) #7
  %210 = load ptr, ptr %14, align 8, !tbaa !3
  %211 = getelementptr inbounds nuw %struct.hwloc_topology, ptr %210, i32 0, i32 19
  %212 = getelementptr inbounds nuw %struct.hwloc_topology_support, ptr %211, i32 0, i32 1
  %213 = load ptr, ptr %212, align 8, !tbaa !54
  call void @free(ptr noundef %213) #7
  %214 = load ptr, ptr %14, align 8, !tbaa !3
  %215 = getelementptr inbounds nuw %struct.hwloc_topology, ptr %214, i32 0, i32 19
  %216 = getelementptr inbounds nuw %struct.hwloc_topology_support, ptr %215, i32 0, i32 2
  %217 = load ptr, ptr %216, align 8, !tbaa !55
  call void @free(ptr noundef %217) #7
  %218 = load ptr, ptr %14, align 8, !tbaa !3
  %219 = getelementptr inbounds nuw %struct.hwloc_topology, ptr %218, i32 0, i32 19
  %220 = getelementptr inbounds nuw %struct.hwloc_topology_support, ptr %219, i32 0, i32 3
  %221 = load ptr, ptr %220, align 8, !tbaa !56
  call void @free(ptr noundef %221) #7
  %222 = load ptr, ptr %14, align 8, !tbaa !3
  call void @free(ptr noundef %222) #7
  br label %223

223:                                              ; preds = %205, %92
  call void @hwloc_components_fini()
  br label %224

224:                                              ; preds = %223, %86, %76
  %225 = load ptr, ptr %18, align 8, !tbaa !20
  %226 = load i64, ptr %12, align 8, !tbaa !10
  %227 = call i32 @munmap(ptr noundef %225, i64 noundef %226) #7
  store i32 -1, ptr %7, align 4
  store i32 1, ptr %20, align 4
  br label %228

228:                                              ; preds = %224, %202, %71, %61, %40, %32, %23
  call void @llvm.lifetime.end.p0(i64 4, ptr %19) #7
  call void @llvm.lifetime.end.p0(i64 8, ptr %18) #7
  call void @llvm.lifetime.end.p0(i64 4, ptr %17) #7
  call void @llvm.lifetime.end.p0(i64 24, ptr %16) #7
  call void @llvm.lifetime.end.p0(i64 8, ptr %15) #7
  call void @llvm.lifetime.end.p0(i64 8, ptr %14) #7
  %229 = load i32, ptr %7, align 4
  ret i32 %229
}