; Function Attrs: nounwind uwtable
define range(i32 -1, 1) i32 @hwloc_shmem_topology_adopt(ptr noundef writeonly captures(none) %0, i32 noundef %1, i64 noundef %2, ptr noundef %3, i64 noundef %4, i64 noundef %5) local_unnamed_addr #0 {
  %7 = alloca %struct.hwloc_shmem_header, align 8
  call void @llvm.lifetime.start.p0(i64 24, ptr nonnull %7) #13
  %.not = icmp eq i64 %5, 0
  br i1 %.not, label %10, label %8

8:                                                ; preds = %6
  %9 = tail call ptr @__errno_location() #14
  store i32 22, ptr %9, align 4, !tbaa !7
  br label %73

10:                                               ; preds = %6
  %11 = tail call i64 @lseek(i32 noundef %1, i64 noundef %2, i32 noundef 0) #13
  %12 = and i64 %11, 2147483648
  %.not67 = icmp eq i64 %12, 0
  br i1 %.not67, label %13, label %73

13:                                               ; preds = %10
  %14 = call i64 @read(i32 noundef %1, ptr noundef nonnull %7, i64 noundef 24) #13
  %sext.mask = and i64 %14, 4294967295
  %.not68 = icmp eq i64 %sext.mask, 24
  br i1 %.not68, label %15, label %73

15:                                               ; preds = %13
  %16 = load i32, ptr %7, align 8, !tbaa !16
  %.not69 = icmp eq i32 %16, 1
  %17 = getelementptr inbounds nuw i8, ptr %7, i64 4
  %18 = load i32, ptr %17, align 4
  %.not70 = icmp eq i32 %18, 24
  %or.cond = select i1 %.not69, i1 %.not70, i1 false
  %19 = getelementptr inbounds nuw i8, ptr %7, i64 8
  %20 = load i64, ptr %19, align 8
  %21 = ptrtoint ptr %3 to i64
  %.not71 = icmp eq i64 %20, %21
  %or.cond83 = select i1 %or.cond, i1 %.not71, i1 false
  %22 = getelementptr inbounds nuw i8, ptr %7, i64 16
  %23 = load i64, ptr %22, align 8
  %.not72 = icmp eq i64 %23, %4
  %or.cond85 = select i1 %or.cond83, i1 %.not72, i1 false
  br i1 %or.cond85, label %26, label %24

24:                                               ; preds = %15
  %25 = tail call ptr @__errno_location() #14
  store i32 22, ptr %25, align 4, !tbaa !7
  br label %73

26:                                               ; preds = %15
  %27 = tail call ptr @mmap(ptr noundef %3, i64 noundef %4, i32 noundef 1, i32 noundef 1, i32 noundef %1, i64 noundef %2) #13
  %28 = icmp eq ptr %27, inttoptr (i64 -1 to ptr)
  br i1 %28, label %73, label %29

29:                                               ; preds = %26
  %.not73 = icmp eq ptr %27, %3
  br i1 %.not73, label %32, label %30

30:                                               ; preds = %29
  %31 = tail call ptr @__errno_location() #14
  store i32 16, ptr %31, align 4, !tbaa !7
  br label %71

32:                                               ; preds = %29
  %33 = getelementptr inbounds nuw i8, ptr %3, i64 24
  %34 = tail call i32 @hwloc_topology_abi_check(ptr noundef nonnull %33) #13
  %35 = icmp slt i32 %34, 0
  br i1 %35, label %36, label %38

36:                                               ; preds = %32
  %37 = tail call ptr @__errno_location() #14
  store i32 22, ptr %37, align 4, !tbaa !7
  br label %71

38:                                               ; preds = %32
  tail call void @hwloc_components_init() #13
  %39 = tail call noalias dereferenceable_or_null(936) ptr @malloc(i64 noundef 936) #15
  %.not74 = icmp eq ptr %39, null
  br i1 %.not74, label %70, label %40

40:                                               ; preds = %38
  tail call void @llvm.memcpy.p0.p0.i64(ptr noundef nonnull align 8 dereferenceable(936) %39, ptr noundef nonnull align 8 dereferenceable(936) %33, i64 936, i1 false)
  %41 = getelementptr inbounds nuw i8, ptr %39, i64 840
  store ptr null, ptr %41, align 8, !tbaa !21
  %42 = getelementptr inbounds nuw i8, ptr %39, i64 240
  store ptr %3, ptr %42, align 8, !tbaa !44
  %43 = getelementptr inbounds nuw i8, ptr %39, i64 248
  store i64 %4, ptr %43, align 8, !tbaa !45
  store i32 196608, ptr %39, align 8, !tbaa !46
  %44 = tail call noalias dereferenceable_or_null(6) ptr @malloc(i64 noundef 6) #15
  %45 = getelementptr inbounds nuw i8, ptr %39, i64 656
  store ptr %44, ptr %45, align 8, !tbaa !47
  %46 = tail call noalias dereferenceable_or_null(11) ptr @malloc(i64 noundef 11) #15
  %47 = getelementptr inbounds nuw i8, ptr %39, i64 664
  store ptr %46, ptr %47, align 8, !tbaa !48
  %48 = tail call noalias dereferenceable_or_null(16) ptr @malloc(i64 noundef 16) #15
  %49 = getelementptr inbounds nuw i8, ptr %39, i64 672
  store ptr %48, ptr %49, align 8, !tbaa !49
  %50 = tail call noalias dereferenceable_or_null(1) ptr @malloc(i64 noundef 1) #15
  %51 = getelementptr inbounds nuw i8, ptr %39, i64 680
  store ptr %50, ptr %51, align 8, !tbaa !50
  %.not75 = icmp eq ptr %44, null
  %.not76 = icmp eq ptr %46, null
  %or.cond87 = or i1 %.not75, %.not76
  br i1 %or.cond87, label %69, label %52

52:                                               ; preds = %40
  %.not77 = icmp eq ptr %48, null
  %.not78 = icmp eq ptr %50, null
  %or.cond86 = or i1 %.not77, %.not78
  br i1 %or.cond86, label %69, label %53

53:                                               ; preds = %52
  %54 = getelementptr inbounds nuw i8, ptr %3, i64 680
  %55 = load ptr, ptr %54, align 8, !tbaa !47
  tail call void @llvm.memcpy.p0.p0.i64(ptr noundef nonnull align 1 dereferenceable(6) %44, ptr noundef nonnull align 1 dereferenceable(6) %55, i64 6, i1 false)
  %56 = getelementptr inbounds nuw i8, ptr %3, i64 688
  %57 = load ptr, ptr %56, align 8, !tbaa !48
  tail call void @llvm.memcpy.p0.p0.i64(ptr noundef nonnull align 1 dereferenceable(11) %46, ptr noundef nonnull align 1 dereferenceable(11) %57, i64 11, i1 false)
  %58 = getelementptr inbounds nuw i8, ptr %3, i64 696
  %59 = load ptr, ptr %58, align 8, !tbaa !49
  tail call void @llvm.memcpy.p0.p0.i64(ptr noundef nonnull align 1 dereferenceable(16) %48, ptr noundef nonnull align 1 dereferenceable(16) %59, i64 16, i1 false)
  %60 = getelementptr inbounds nuw i8, ptr %3, i64 704
  %61 = load ptr, ptr %60, align 8, !tbaa !50
  %62 = load i8, ptr %61, align 1
  store i8 %62, ptr %50, align 1
  tail call void @hwloc_set_binding_hooks(ptr noundef nonnull %39) #13
  %63 = getelementptr inbounds nuw i8, ptr %39, i64 688
  %64 = getelementptr inbounds nuw i8, ptr %3, i64 712
  tail call void @llvm.memset.p0.i64(ptr noundef nonnull align 8 dereferenceable(32) %63, i8 0, i64 32, i1 false)
  %65 = tail call i32 @hwloc__tma_dup_infos(ptr noundef null, ptr noundef nonnull %63, ptr noundef nonnull %64) #13
  %66 = tail call ptr @getenv(ptr noundef nonnull @.str) #13
  %.not79 = icmp eq ptr %66, null
  br i1 %.not79, label %68, label %67

67:                                               ; preds = %53
  tail call void @hwloc_topology_check(ptr noundef nonnull %39) #13
  br label %68

68:                                               ; preds = %67, %53
  store ptr %39, ptr %0, align 8, !tbaa !14
  br label %73

69:                                               ; preds = %40, %52
  tail call void @free(ptr noundef %44) #13
  tail call void @free(ptr noundef %46) #13
  tail call void @free(ptr noundef %48) #13
  tail call void @free(ptr noundef %50) #13
  tail call void @free(ptr noundef nonnull %39) #13
  br label %70

70:                                               ; preds = %38, %69
  tail call void @hwloc_components_fini() #13
  br label %71

71:                                               ; preds = %70, %36, %30
  %72 = tail call i32 @munmap(ptr noundef %27, i64 noundef %4) #13
  br label %73

73:                                               ; preds = %26, %13, %10, %71, %68, %24, %8
  %.0 = phi i32 [ -1, %8 ], [ -1, %24 ], [ -1, %71 ], [ 0, %68 ], [ -1, %10 ], [ -1, %13 ], [ -1, %26 ]
  call void @llvm.lifetime.end.p0(i64 24, ptr nonnull %7) #13
  ret i32 %.0
}